; Function Attrs: nounwind uwtable
define i32 @zend_eval_stringl_ex(ptr noundef %0, i64 noundef %1, ptr noundef %2, ptr noundef %3, i1 noundef zeroext %4) local_unnamed_addr #0 {
  %6 = tail call i32 @zend_eval_stringl(ptr noundef %0, i64 noundef %1, ptr noundef %2, ptr noundef %3), !range !4
  %7 = load ptr, ptr getelementptr inbounds (%struct._zend_executor_globals, ptr @executor_globals, i64 0, i32 50), align 8
  %8 = icmp ne ptr %7, null
  %or.cond = select i1 %4, i1 %8, i1 false
  br i1 %or.cond, label %9, label %11

9:                                                ; preds = %5
  %10 = tail call i32 @zend_exception_error(ptr noundef nonnull %7, i32 noundef 1) #24
  br label %11

11:                                               ; preds = %9, %5
  %.0 = phi i32 [ %10, %9 ], [ %6, %5 ]
  ret i32 %.0
}